target datalayout = "e-m:e-p270:32:32-p271:32:32-p272:64:64-i64:64-i128:128-f80:128-n8:16:32:64-S128"
target triple = "x86_64-unknown-linux-gnu"

%"class.std::set.0" = type { %"class.std::_Rb_tree.1" }
%"class.std::_Rb_tree.1" = type { %"struct.std::_Rb_tree<QuantLib::Observer *, QuantLib::Observer *, std::_Identity<QuantLib::Observer *>, std::less<QuantLib::Observer *>>::_Rb_tree_impl" }
%"struct.std::_Rb_tree<QuantLib::Observer *, QuantLib::Observer *, std::_Identity<QuantLib::Observer *>, std::less<QuantLib::Observer *>>::_Rb_tree_impl" = type { [8 x i8], %"struct.std::_Rb_tree_header" }
%"struct.std::_Rb_tree_header" = type { %"struct.std::_Rb_tree_node_base", i64 }
%"struct.std::_Rb_tree_node_base" = type { i32, ptr, ptr, ptr }
%"class.std::set" = type { %"class.std::_Rb_tree" }
%"class.std::_Rb_tree" = type { %"struct.std::_Rb_tree<boost::shared_ptr<QuantLib::Observable>, boost::shared_ptr<QuantLib::Observable>, std::_Identity<boost::shared_ptr<QuantLib::Observable>>, std::less<boost::shared_ptr<QuantLib::Observable>>>::_Rb_tree_impl" }
%"struct.std::_Rb_tree<boost::shared_ptr<QuantLib::Observable>, boost::shared_ptr<QuantLib::Observable>, std::_Identity<boost::shared_ptr<QuantLib::Observable>>, std::less<boost::shared_ptr<QuantLib::Observable>>>::_Rb_tree_impl" = type { [8 x i8], %"struct.std::_Rb_tree_header" }
%"class.boost::detail::shared_count" = type { ptr }
%"class.QuantLib::Observable" = type { ptr, %"class.std::set.0" }
%"class.QuantLib::Observer" = type { ptr, %"class.std::set" }
%"class.QuantLib::Date" = type { i64 }
%"class.QuantLib::LazyObject.base" = type <{ ptr, i8, i8, i8, i8 }>
%"class.std::map.18" = type { %"class.std::_Rb_tree.19" }
%"class.std::_Rb_tree.19" = type { %"struct.std::_Rb_tree<std::__cxx11::basic_string<char>, std::pair<const std::__cxx11::basic_string<char>, boost::any>, std::_Select1st<std::pair<const std::__cxx11::basic_string<char>, boost::any>>, std::less<std::__cxx11::basic_string<char>>>::_Rb_tree_impl" }
%"struct.std::_Rb_tree<std::__cxx11::basic_string<char>, std::pair<const std::__cxx11::basic_string<char>, boost::any>, std::_Select1st<std::pair<const std::__cxx11::basic_string<char>, boost::any>>, std::less<std::__cxx11::basic_string<char>>>::_Rb_tree_impl" = type { [8 x i8], %"struct.std::_Rb_tree_header" }
%"class.boost::shared_ptr.24" = type { ptr, %"class.boost::detail::shared_count" }
%"class.QuantLib::CallableBond::NPVSpreadHelper" = type { ptr, ptr }
%"class.QuantLib::Instrument" = type { %"class.QuantLib::LazyObject.base", double, double, %"class.QuantLib::Date", %"class.std::map.18", %"class.boost::shared_ptr.24", %"class.QuantLib::Observable", %"class.QuantLib::Observer" }

@_ZTIN8QuantLib13PricingEngine7resultsE = linkonce_odr constant { ptr, ptr } { ptr getelementptr inbounds (ptr, ptr @_ZTVN10__cxxabiv117__class_type_infoE, i64 2), ptr @_ZTSN8QuantLib13PricingEngine7resultsE }, comdat, align 8
@.str.26 = private unnamed_addr constant [8 x i8] c"px != 0\00", align 1
@.str.27 = private unnamed_addr constant [102 x i8] c"generated/home/dtcxzyw/WorkSpace/SDK/vcpkg/installed/x64-linux/include/boost/smart_ptr/shared_ptr.hpp\00", align 1
@__PRETTY_FUNCTION__._ZNK5boost10shared_ptrIN8QuantLib13PricingEngineEEptEv = private unnamed_addr constant [143 x i8] c"typename boost::detail::sp_member_access<T>::type boost::shared_ptr<QuantLib::PricingEngine>::operator->() const [T = QuantLib::PricingEngine]\00", align 1

; Function Attrs: mustprogress uwtable
define linkonce_odr noundef ptr @_ZNK5boost10shared_ptrIN8QuantLib13PricingEngineEEptEv(ptr noundef nonnull align 8 dereferenceable(16) %this) #2 comdat align 2 {
entry:
  %this.addr = alloca ptr, align 8
  store ptr %this, ptr %this.addr, align 8, !tbaa !3
  %this1 = load ptr, ptr %this.addr, align 8
  %px = getelementptr inbounds nuw %"class.boost::shared_ptr.24", ptr %this1, i32 0, i32 0
  %0 = load ptr, ptr %px, align 8, !tbaa !93
  %cmp = icmp ne ptr %0, null
  %lnot = xor i1 %cmp, true
  %lnot2 = xor i1 %lnot, true
  %conv = zext i1 %lnot2 to i64
  %expval = call i64 @llvm.expect.i64(i64 %conv, i64 1)
  %tobool = icmp ne i64 %expval, 0
  br i1 %tobool, label %cond.true, label %cond.false

cond.true:                                        ; preds = %entry
  br label %cond.end

cond.false:                                       ; preds = %entry
  call void @_ZN5boost16assertion_failedEPKcS1_S1_l(ptr noundef @.str.26, ptr noundef @__PRETTY_FUNCTION__._ZNK5boost10shared_ptrIN8QuantLib13PricingEngineEEptEv, ptr noundef @.str.27, i64 noundef 784)
  br label %cond.end

cond.end:                                         ; preds = %cond.false, %cond.true
  %px3 = getelementptr inbounds nuw %"class.boost::shared_ptr.24", ptr %this1, i32 0, i32 0
  %1 = load ptr, ptr %px3, align 8, !tbaa !93
  ret ptr %1
}

; Function Attrs: mustprogress uwtable
define void @_ZN8QuantLib12CallableBond15NPVSpreadHelperC2ERS0_(ptr noundef nonnull align 8 dereferenceable(16) %this, ptr noundef nonnull align 8 dereferenceable(304) %bond) unnamed_addr #2 align 2 {
entry:
  %this.addr = alloca ptr, align 8
  %bond.addr = alloca ptr, align 8
  store ptr %this, ptr %this.addr, align 8, !tbaa !3
  store ptr %bond, ptr %bond.addr, align 8, !tbaa !3
  %this1 = load ptr, ptr %this.addr, align 8
  %bond_ = getelementptr inbounds nuw %"class.QuantLib::CallableBond::NPVSpreadHelper", ptr %this1, i32 0, i32 0
  %0 = load ptr, ptr %bond.addr, align 8, !tbaa !3
  store ptr %0, ptr %bond_, align 8, !tbaa !3
  %results_ = getelementptr inbounds nuw %"class.QuantLib::CallableBond::NPVSpreadHelper", ptr %this1, i32 0, i32 1
  %1 = load ptr, ptr %bond.addr, align 8, !tbaa !3
  %engine_ = getelementptr inbounds nuw %"class.QuantLib::Instrument", ptr %1, i32 0, i32 5
  %call = call noundef ptr @_ZNK5boost10shared_ptrIN8QuantLib13PricingEngineEEptEv(ptr noundef nonnull align 8 dereferenceable(16) %engine_)
  %vtable = load ptr, ptr %call, align 8, !tbaa !20
  %vfn = getelementptr inbounds ptr, ptr %vtable, i64 3
  %2 = load ptr, ptr %vfn, align 8
  %call2 = call noundef ptr %2(ptr noundef nonnull align 8 dereferenceable(56) %call)
  %3 = icmp eq ptr %call2, null
  br i1 %3, label %dynamic_cast.null, label %dynamic_cast.notnull

dynamic_cast.notnull:                             ; preds = %entry
  %4 = call ptr @__dynamic_cast(ptr %call2, ptr @_ZTIN8QuantLib13PricingEngine7resultsE, ptr @_ZTIN8QuantLib10Instrument7resultsE, i64 -1) #16
  br label %dynamic_cast.end

dynamic_cast.null:                                ; preds = %entry
  br label %dynamic_cast.end

dynamic_cast.end:                                 ; preds = %dynamic_cast.null, %dynamic_cast.notnull
  %5 = phi ptr [ %4, %dynamic_cast.notnull ], [ null, %dynamic_cast.null ]
  store ptr %5, ptr %results_, align 8, !tbaa !117
  %6 = load ptr, ptr %bond.addr, align 8, !tbaa !3
  %7 = load ptr, ptr %bond.addr, align 8, !tbaa !3
  %engine_3 = getelementptr inbounds nuw %"class.QuantLib::Instrument", ptr %7, i32 0, i32 5
  %call4 = call noundef ptr @_ZNK5boost10shared_ptrIN8QuantLib13PricingEngineEEptEv(ptr noundef nonnull align 8 dereferenceable(16) %engine_3)
  %vtable5 = load ptr, ptr %call4, align 8, !tbaa !20
  %vfn6 = getelementptr inbounds ptr, ptr %vtable5, i64 2
  %8 = load ptr, ptr %vfn6, align 8
  %call7 = call noundef ptr %8(ptr noundef nonnull align 8 dereferenceable(56) %call4)
  %vtable8 = load ptr, ptr %6, align 8, !tbaa !20
  %vfn9 = getelementptr inbounds ptr, ptr %vtable8, i64 6
  %9 = load ptr, ptr %vfn9, align 8
  call void %9(ptr noundef nonnull align 8 dereferenceable(304) %6, ptr noundef %call7)
  ret void
}