; Function Attrs: mustprogress uwtable
define void @_ZN8QuantLib12CallableBond15NPVSpreadHelperC2ERS0_(ptr nocapture noundef nonnull writeonly align 8 dereferenceable(16) %this, ptr noundef nonnull align 8 dereferenceable(304) %bond) unnamed_addr #8 align 2 {
entry:
  store ptr %bond, ptr %this, align 8, !tbaa !3
  %engine_ = getelementptr inbounds nuw i8, ptr %bond, i64 88
  %0 = load ptr, ptr %engine_, align 8, !tbaa !120
  %cmp.not.i = icmp eq ptr %0, null
  br i1 %cmp.not.i, label %cond.false.i, label %_ZNK5boost10shared_ptrIN8QuantLib13PricingEngineEEptEv.exit, !prof !50

cond.false.i:                                     ; preds = %entry
  tail call void @_ZN5boost16assertion_failedEPKcS1_S1_l(ptr noundef nonnull @.str.26, ptr noundef nonnull @__PRETTY_FUNCTION__._ZNK5boost10shared_ptrIN8QuantLib13PricingEngineEEptEv, ptr noundef nonnull @.str.27, i64 noundef 784)
  %.pre.i = load ptr, ptr %engine_, align 8, !tbaa !120
  br label %_ZNK5boost10shared_ptrIN8QuantLib13PricingEngineEEptEv.exit

_ZNK5boost10shared_ptrIN8QuantLib13PricingEngineEEptEv.exit: ; preds = %entry, %cond.false.i
  %1 = phi ptr [ %0, %entry ], [ %.pre.i, %cond.false.i ]
  %vtable = load ptr, ptr %1, align 8, !tbaa !33
  %vfn = getelementptr inbounds i8, ptr %vtable, i64 24
  %2 = load ptr, ptr %vfn, align 8
  %call2 = tail call noundef ptr %2(ptr noundef nonnull align 8 dereferenceable(56) %1)
  %3 = icmp eq ptr %call2, null
  br i1 %3, label %dynamic_cast.end, label %dynamic_cast.notnull

dynamic_cast.notnull:                             ; preds = %_ZNK5boost10shared_ptrIN8QuantLib13PricingEngineEEptEv.exit
  %4 = tail call ptr @__dynamic_cast(ptr nonnull %call2, ptr nonnull @_ZTIN8QuantLib13PricingEngine7resultsE, ptr nonnull @_ZTIN8QuantLib10Instrument7resultsE, i64 -1) #28
  br label %dynamic_cast.end

dynamic_cast.end:                                 ; preds = %_ZNK5boost10shared_ptrIN8QuantLib13PricingEngineEEptEv.exit, %dynamic_cast.notnull
  %5 = phi ptr [ %4, %dynamic_cast.notnull ], [ null, %_ZNK5boost10shared_ptrIN8QuantLib13PricingEngineEEptEv.exit ]
  %results_ = getelementptr inbounds nuw i8, ptr %this, i64 8
  store ptr %5, ptr %results_, align 8, !tbaa !155
  %6 = load ptr, ptr %engine_, align 8, !tbaa !120
  %cmp.not.i4 = icmp eq ptr %6, null
  br i1 %cmp.not.i4, label %cond.false.i5, label %_ZNK5boost10shared_ptrIN8QuantLib13PricingEngineEEptEv.exit7, !prof !50

cond.false.i5:                                    ; preds = %dynamic_cast.end
  tail call void @_ZN5boost16assertion_failedEPKcS1_S1_l(ptr noundef nonnull @.str.26, ptr noundef nonnull @__PRETTY_FUNCTION__._ZNK5boost10shared_ptrIN8QuantLib13PricingEngineEEptEv, ptr noundef nonnull @.str.27, i64 noundef 784)
  %.pre.i6 = load ptr, ptr %engine_, align 8, !tbaa !120
  br label %_ZNK5boost10shared_ptrIN8QuantLib13PricingEngineEEptEv.exit7

_ZNK5boost10shared_ptrIN8QuantLib13PricingEngineEEptEv.exit7: ; preds = %dynamic_cast.end, %cond.false.i5
  %7 = phi ptr [ %6, %dynamic_cast.end ], [ %.pre.i6, %cond.false.i5 ]
  %vtable5 = load ptr, ptr %7, align 8, !tbaa !33
  %vfn6 = getelementptr inbounds i8, ptr %vtable5, i64 16
  %8 = load ptr, ptr %vfn6, align 8
  %call7 = tail call noundef ptr %8(ptr noundef nonnull align 8 dereferenceable(56) %7)
  %vtable8 = load ptr, ptr %bond, align 8, !tbaa !33
  %vfn9 = getelementptr inbounds i8, ptr %vtable8, i64 48
  %9 = load ptr, ptr %vfn9, align 8
  tail call void %9(ptr noundef nonnull align 8 dereferenceable(304) %bond, ptr noundef %call7)
  ret void
}